(dp0
S'rU:dT,12'
p1
F0.8
sS'rU:dT,13'
p2
F0.692307692
sS'rU:dC,5'
p3
F0.64
sS'rG:dA,14'
p4
F0.26666666699999997
sS'rG:dG,19'
p5
F0.448275862
sS'rG:dG,18'
p6
F0.47619047600000003
sS'rG:dG,15'
p7
F0.272727273
sS'rG:dG,14'
p8
F0.428571429
sS'rG:dG,17'
p9
F0.235294118
sS'rG:dG,16'
p10
F0.0
sS'rC:dC,20'
p11
F0.058823529000000006
sS'rG:dT,20'
p12
F0.9375
sS'rG:dG,13'
p13
F0.42105263200000004
sS'rG:dG,12'
p14
F0.529411765
sS'rU:dC,6'
p15
F0.571428571
sS'rU:dG,14'
p16
F0.28571428600000004
sS'rU:dT,18'
p17
F0.666666667
sS'rA:dG,13'
p18
F0.21052631600000002
sS'rA:dG,12'
p19
F0.263157895
sS'rA:dG,11'
p20
F0.4
sS'rA:dG,10'
p21
F0.333333333
sS'rA:dA,19'
p22
F0.538461538
sS'rA:dA,18'
p23
F0.5
sS'rA:dG,15'
p24
F0.272727273
sS'rA:dG,14'
p25
F0.214285714
sS'rA:dA,15'
p26
F0.2
sS'rA:dA,14'
p27
F0.533333333
sS'rA:dA,17'
p28
F0.133333333
sS'rA:dA,16'
p29
F0.0
sS'rA:dA,11'
p30
F0.307692308
sS'rA:dA,10'
p31
F0.882352941
sS'rA:dA,13'
p32
F0.3
sS'rA:dA,12'
p33
F0.333333333
sS'rG:dA,13'
p34
F0.3
sS'rG:dA,12'
p35
F0.384615385
sS'rG:dA,11'
p36
F0.384615385
sS'rG:dA,10'
p37
F0.8125
sS'rG:dA,17'
p38
F0.25
sS'rG:dA,16'
p39
F0.0
sS'rG:dA,15'
p40
F0.14285714300000002
sS'rG:dA,6'
p41
F0.666666667
sS'rG:dG,20'
p42
F0.428571429
sS'rG:dA,19'
p43
F0.666666667
sS'rG:dA,18'
p44
F0.666666667
sS'rU:dC,4'
p45
F0.625
sS'rG:dT,12'
p46
F0.933333333
sS'rG:dT,13'
p47
F0.923076923
sS'rU:dG,11'
p48
F0.666666667
sS'rC:dA,3'
p49
F0.6875
sS'rC:dA,2'
p50
F0.9090909090000001
sS'rC:dA,1'
p51
F1.0
sS'rC:dA,7'
p52
F0.8125
sS'rC:dA,6'
p53
F0.9285714290000001
sS'rC:dA,5'
p54
F0.636363636
sS'rC:dA,4'
p55
F0.8
sS'rC:dA,9'
p56
F0.875
sS'rC:dA,8'
p57
F0.875
sS'rU:dT,6'
p58
F0.8666666670000001
sS'rA:dG,20'
p59
F0.22727272699999998
sS'rG:dT,18'
p60
F0.692307692
sS'rU:dG,10'
p61
F0.533333333
sS'rG:dT,19'
p62
F0.7142857140000001
sS'rG:dA,20'
p63
F0.7
sS'rC:dT,20'
p64
F0.5
sS'rU:dC,2'
p65
F0.84
sS'rG:dG,10'
p66
F0.4
sS'rC:dA,17'
p67
F0.46666666700000003
sS'rC:dA,16'
p68
F0.307692308
sS'rC:dA,15'
p69
F0.066666667
sS'rC:dA,14'
p70
F0.7333333329999999
sS'rC:dA,13'
p71
F0.7
sS'rC:dA,12'
p72
F0.538461538
sS'rC:dA,11'
p73
F0.307692308
sS'rC:dA,10'
p74
F0.9411764709999999
sS'rG:dG,11'
p75
F0.428571429
sS'rU:dC,20'
p76
F0.176470588
sS'rG:dG,3'
p77
F0.384615385
sS'rC:dA,19'
p78
F0.46153846200000004
sS'rC:dA,18'
p79
F0.642857143
sS'rU:dG,17'
p80
F0.705882353
sS'rU:dG,16'
p81
F0.666666667
sS'rU:dG,15'
p82
F0.272727273
sS'rG:dG,2'
p83
F0.692307692
sS'rU:dG,13'
p84
F0.7894736840000001
sS'rU:dG,12'
p85
F0.947368421
sS'rG:dA,9'
p86
F0.533333333
sS'rG:dA,8'
p87
F0.625
sS'rG:dA,7'
p88
F0.571428571
sS'rG:dG,5'
p89
F0.7857142859999999
sS'rG:dA,5'
p90
F0.3
sS'rG:dA,4'
p91
F0.363636364
sS'rG:dA,3'
p92
F0.5
sS'rG:dA,2'
p93
F0.636363636
sS'rG:dA,1'
p94
F1.0
sS'rG:dG,4'
p95
F0.529411765
sS'rG:dG,1'
p96
F0.7142857140000001
sS'rA:dC,9'
p97
F0.666666667
sS'rG:dG,7'
p98
F0.6875
sS'rG:dT,5'
p99
F0.8666666670000001
sS'rU:dT,20'
p100
F0.5625
sS'rC:dC,15'
p101
F0.05
sS'rC:dC,14'
p102
F0.0
sS'rC:dC,17'
p103
F0.058823529000000006
sS'rC:dC,16'
p104
F0.153846154
sS'rC:dC,11'
p105
F0.25
sS'rC:dC,10'
p106
F0.38888888899999996
sS'rC:dC,13'
p107
F0.13636363599999998
sS'rC:dC,12'
p108
F0.444444444
sS'rC:dA,20'
p109
F0.3
sS'rC:dC,19'
p110
F0.125
sS'rC:dC,18'
p111
F0.133333333
sS'rA:dA,1'
p112
F1.0
sS'rA:dA,3'
p113
F0.705882353
sS'rA:dA,2'
p114
F0.727272727
sS'rA:dA,5'
p115
F0.363636364
sS'rA:dA,4'
p116
F0.636363636
sS'rA:dA,7'
p117
F0.4375
sS'rA:dA,6'
p118
F0.7142857140000001
sS'rA:dA,9'
p119
F0.6
sS'rA:dA,8'
p120
F0.428571429
sS'rU:dG,20'
p121
F0.090909091
sS'rC:dC,9'
p122
F0.6190476189999999
sS'rC:dC,8'
p123
F0.642857143
sS'rU:dT,10'
p124
F0.857142857
sS'rU:dT,11'
p125
F0.75
sS'rU:dT,16'
p126
F0.9090909090000001
sS'rU:dT,17'
p127
F0.533333333
sS'rU:dT,14'
p128
F0.6190476189999999
sS'rU:dT,15'
p129
F0.578947368
sS'rC:dC,1'
p130
F0.913043478
sS'rU:dT,3'
p131
F0.7142857140000001
sS'rC:dC,3'
p132
F0.5
sS'rC:dC,2'
p133
F0.695652174
sS'rC:dC,5'
p134
F0.6
sS'rC:dC,4'
p135
F0.5
sS'rC:dC,7'
p136
F0.470588235
sS'rC:dC,6'
p137
F0.5
sS'rU:dT,4'
p138
F0.47619047600000003
sS'rU:dT,8'
p139
F0.8
sS'rU:dT,9'
p140
F0.9285714290000001
sS'rA:dC,19'
p141
F0.375
sS'rA:dC,18'
p142
F0.4
sS'rA:dC,17'
p143
F0.176470588
sS'rA:dC,16'
p144
F0.192307692
sS'rA:dC,15'
p145
F0.65
sS'rA:dC,14'
p146
F0.46666666700000003
sS'rA:dC,13'
p147
F0.6521739129999999
sS'rA:dC,12'
p148
F0.7222222220000001
sS'rA:dC,11'
p149
F0.65
sS'rA:dC,10'
p150
F0.5555555560000001
sS'rU:dC,7'
p151
F0.588235294
sS'rC:dT,8'
p152
F0.65
sS'rC:dT,9'
p153
F0.857142857
sS'rC:dT,6'
p154
F0.9285714290000001
sS'rC:dT,7'
p155
F0.75
sS'rC:dT,4'
p156
F0.842105263
sS'rC:dT,5'
p157
F0.571428571
sS'rC:dT,2'
p158
F0.727272727
sS'rC:dT,3'
p159
F0.8666666670000001
sS'rC:dT,1'
p160
F1.0
sS'rA:dC,8'
p161
F0.7333333329999999
sS'rU:dT,1'
p162
F1.0
sS'rU:dC,3'
p163
F0.5
sS'rU:dC,1'
p164
F0.956521739
sS'rU:dT,2'
p165
F0.846153846
sS'rU:dG,19'
p166
F0.275862069
sS'rG:dT,14'
p167
F0.75
sS'rG:dT,15'
p168
F0.9411764709999999
sS'rG:dT,16'
p169
F1.0
sS'rG:dT,17'
p170
F0.933333333
sS'rG:dT,10'
p171
F0.933333333
sS'rG:dT,11'
p172
F1.0
sS'rA:dG,9'
p173
F0.571428571
sS'rA:dG,8'
p174
F0.428571429
sS'rA:dG,7'
p175
F0.4375
sS'rA:dG,6'
p176
F0.454545455
sS'rA:dG,5'
p177
F0.5
sS'rA:dG,4'
p178
F0.352941176
sS'rA:dG,3'
p179
F0.428571429
sS'rA:dG,2'
p180
F0.7857142859999999
sS'rA:dG,1'
p181
F0.857142857
sS'rU:dT,5'
p182
F0.5
sS'rG:dT,2'
p183
F0.846153846
sS'rA:dC,3'
p184
F0.611111111
sS'rA:dC,20'
p185
F0.764705882
sS'rG:dT,1'
p186
F0.9
sS'rG:dT,6'
p187
F1.0
sS'rG:dT,7'
p188
F1.0
sS'rG:dT,4'
p189
F0.9
sS'rC:dT,19'
p190
F0.428571429
sS'rG:dG,9'
p191
F0.538461538
sS'rG:dG,8'
p192
F0.615384615
sS'rG:dT,8'
p193
F1.0
sS'rG:dT,9'
p194
F0.642857143
sS'rU:dG,18'
p195
F0.428571429
sS'rU:dT,7'
p196
F0.875
sS'rG:dG,6'
p197
F0.681818182
sS'rA:dA,20'
p198
F0.6
sS'rU:dC,9'
p199
F0.6190476189999999
sS'rA:dG,17'
p200
F0.176470588
sS'rU:dC,8'
p201
F0.7333333329999999
sS'rA:dG,16'
p202
F0.0
sS'rA:dG,19'
p203
F0.20689655199999998
sS'rG:dT,3'
p204
F0.75
sS'rU:dG,3'
p205
F0.428571429
sS'rU:dG,2'
p206
F0.857142857
sS'rU:dG,1'
p207
F0.857142857
sS'rA:dG,18'
p208
F0.19047619
sS'rU:dG,7'
p209
F0.6875
sS'rU:dG,6'
p210
F0.9090909090000001
sS'rU:dG,5'
p211
F1.0
sS'rU:dG,4'
p212
F0.647058824
sS'rU:dG,9'
p213
F0.923076923
sS'rU:dG,8'
p214
F1.0
sS'rU:dC,19'
p215
F0.25
sS'rU:dC,18'
p216
F0.333333333
sS'rU:dC,13'
p217
F0.260869565
sS'rU:dC,12'
p218
F0.5
sS'rU:dC,11'
p219
F0.4
sS'rU:dC,10'
p220
F0.5
sS'rU:dC,17'
p221
F0.117647059
sS'rU:dC,16'
p222
F0.346153846
sS'rU:dC,15'
p223
F0.05
sS'rU:dC,14'
p224
F0.0
sS'rC:dT,10'
p225
F0.8666666670000001
sS'rC:dT,11'
p226
F0.75
sS'rC:dT,12'
p227
F0.7142857140000001
sS'rC:dT,13'
p228
F0.384615385
sS'rC:dT,14'
p229
F0.35
sS'rC:dT,15'
p230
F0.222222222
sS'rC:dT,16'
p231
F1.0
sS'rC:dT,17'
p232
F0.46666666700000003
sS'rC:dT,18'
p233
F0.538461538
sS'rA:dC,2'
p234
F0.8
sS'rA:dC,1'
p235
F1.0
sS'rA:dC,7'
p236
F0.705882353
sS'rA:dC,6'
p237
F0.7142857140000001
sS'rA:dC,5'
p238
F0.72
sS'rA:dC,4'
p239
F0.625
sS'rU:dT,19'
p240
F0.28571428600000004
sS'r-:dA,2'
p241
F0.692307692308
sS'r-:dA,3'
p242
F0.4375
sS'r-:dA,4'
p243
F0.15
sS'r-:dA,5'
p244
F0.133333333333
sS'r-:dA,6'
p245
F0.0666666666667
sS'r-:dA,7'
p246
F0
sS'r-:dA,8'
p247
F0
sS'r-:dA,9'
p248
F0.142857142857
sS'r-:dA,10'
p249
F0.4
sS'r-:dA,11'
p250
F0.3125
sS'r-:dA,12'
p251
F0.0714285714286
sS'r-:dA,13'
p252
F0.0769230769231
sS'r-:dA,14'
p253
F0.047619047619
sS'r-:dA,15'
p254
F0.0526315789474
sS'r-:dA,16'
p255
F0
sS'r-:dA,17'
p256
F0
sS'r-:dA,18'
p257
F0.153846153846
sS'r-:dA,19'
p258
F0.142857142857
sS'r-:dA,20'
p259
F0.6
sS'r-:dC,2'
p260
F0.714285714286
sS'r-:dC,3'
p261
F0.461538461538
sS'r-:dC,4'
p262
F0.176470588235
sS'r-:dC,5'
p263
F0.0714285714286
sS'r-:dC,6'
p264
F0
sS'r-:dC,7'
p265
F0
sS'r-:dC,8'
p266
F0
sS'r-:dC,9'
p267
F0
sS'r-:dC,10'
p268
F0.133333333333
sS'r-:dC,11'
p269
F0.133333333333
sS'r-:dC,12'
p270
F0
sS'r-:dC,13'
p271
F0
sS'r-:dC,14'
p272
F0
sS'r-:dC,15'
p273
F0
sS'r-:dC,16'
p274
F0
sS'r-:dC,17'
p275
F0.0588235294118
sS'r-:dC,18'
p276
F0.142857142857
sS'r-:dC,19'
p277
F0.0357142857143
sS'r-:dC,20'
p278
F0.0454545454545
sS'r-:dT,2'
p279
F0.727272727273
sS'r-:dT,3'
p280
F0.6
sS'r-:dT,4'
p281
F0.1
sS'r-:dT,5'
p282
F0
sS'r-:dT,6'
p283
F0.0833333333333
sS'r-:dT,7'
p284
F0
sS'r-:dT,8'
p285
F0.0625
sS'r-:dT,9'
p286
F0.1875
sS'r-:dT,10'
p287
F0.25
sS'r-:dT,11'
p288
F0.0769230769231
sS'r-:dT,12'
p289
F0.0769230769231
sS'r-:dT,13'
p290
F0
sS'r-:dT,14'
p291
F0
sS'r-:dT,15'
p292
F0
sS'r-:dT,16'
p293
F0
sS'r-:dT,17'
p294
F0
sS'r-:dT,18'
p295
F0
sS'r-:dT,19'
p296
F0.307692307692
sS'r-:dT,20'
p297
F0.6
sS'r-:dG,2'
p298
F0.96
sS'r-:dG,3'
p299
F0.666666666667
sS'r-:dG,4'
p300
F0.375
sS'r-:dG,5'
p301
F0.24
sS'r-:dG,6'
p302
F0.142857142857
sS'r-:dG,7'
p303
F0.0588235294118
sS'r-:dG,8'
p304
F0.133333333333
sS'r-:dG,9'
p305
F0.238095238095
sS'r-:dG,10'
p306
F0.333333333333
sS'r-:dG,11'
p307
F0.1
sS'r-:dG,12'
p308
F0.0555555555556
sS'r-:dG,13'
p309
F0.0434782608696
sS'r-:dG,14'
p310
F0
sS'r-:dG,15'
p311
F0
sS'r-:dG,16'
p312
F0
sS'r-:dG,17'
p313
F0
sS'r-:dG,18'
p314
F0.2
sS'r-:dG,19'
p315
F0.4375
sS'r-:dG,20'
p316
F0.529411764706
sS'rA:d-,2'
p317
F0.969230769231
sS'rA:d-,3'
p318
F0.888888888889
sS'rA:d-,4'
p319
F0.58064516129
sS'rA:d-,5'
p320
F0.328125
sS'rA:d-,6'
p321
F0.276923076923
sS'rA:d-,7'
p322
F0.430769230769
sS'rA:d-,8'
p323
F0.234375
sS'rA:d-,9'
p324
F0.276923076923
sS'rA:d-,10'
p325
F0.569230769231
sS'rA:d-,11'
p326
F0.276923076923
sS'rA:d-,12'
p327
F0.0615384615385
sS'rA:d-,13'
p328
F0.03125
sS'rA:d-,14'
p329
F0.0461538461538
sS'rA:d-,15'
p330
F0.03125
sS'rA:d-,16'
p331
F0.0153846153846
sS'rA:d-,17'
p332
F0
sS'rA:d-,18'
p333
F0
sS'rA:d-,19'
p334
F0
sS'rA:d-,20'
p335
F0.0615384615385
sS'rC:d-,2'
p336
F0.96875
sS'rC:d-,3'
p337
F0.933333333333
sS'rC:d-,4'
p338
F0.68253968254
sS'rC:d-,5'
p339
F0.365079365079
sS'rC:d-,6'
p340
F0.4375
sS'rC:d-,7'
p341
F0.569230769231
sS'rC:d-,8'
p342
F0.123076923077
sS'rC:d-,9'
p343
F0.415384615385
sS'rC:d-,10'
p344
F0.615384615385
sS'rC:d-,11'
p345
F0.169230769231
sS'rC:d-,12'
p346
F0.046875
sS'rC:d-,13'
p347
F0
sS'rC:d-,14'
p348
F0.0461538461538
sS'rC:d-,15'
p349
F0
sS'rC:d-,16'
p350
F0
sS'rC:d-,17'
p351
F0
sS'rC:d-,18'
p352
F0
sS'rC:d-,19'
p353
F0
sS'rC:d-,20'
p354
F0.03125
sS'rU:d-,2'
p355
F0.953125
sS'rU:d-,3'
p356
F0.921875
sS'rU:d-,4'
p357
F0.65625
sS'rU:d-,5'
p358
F0.215384615385
sS'rU:d-,6'
p359
F0.446153846154
sS'rU:d-,7'
p360
F0.553846153846
sS'rU:d-,8'
p361
F0.296875
sS'rU:d-,9'
p362
F0.609375
sS'rU:d-,10'
p363
F0.650793650794
sS'rU:d-,11'
p364
F0.323076923077
sS'rU:d-,12'
p365
F0.0307692307692
sS'rU:d-,13'
p366
F0
sS'rU:d-,14'
p367
F0.0615384615385
sS'rU:d-,15'
p368
F0
sS'rU:d-,16'
p369
F0
sS'rU:d-,17'
p370
F0
sS'rU:d-,18'
p371
F0
sS'rU:d-,19'
p372
F0
sS'rU:d-,20'
p373
F0
sS'rG:d-,2'
p374
F0.921875
sS'rG:d-,3'
p375
F0.822580645161
sS'rG:d-,4'
p376
F0.523076923077
sS'rG:d-,5'
p377
F0.296875
sS'rG:d-,6'
p378
F0.390625
sS'rG:d-,7'
p379
F0.492063492063
sS'rG:d-,8'
p380
F0.301587301587
sS'rG:d-,9'
p381
F0.328125
sS'rG:d-,10'
p382
F0.587301587302
sS'rG:d-,11'
p383
F0.25
sS'rG:d-,12'
p384
F0.125
sS'rG:d-,13'
p385
F0.046875
sS'rG:d-,14'
p386
F0.0634920634921
sS'rG:d-,15'
p387
F0
sS'rG:d-,16'
p388
F0
sS'rG:d-,17'
p389
F0
sS'rG:d-,18'
p390
F0
sS'rG:d-,19'
p391
F0.0634920634921
sS'rG:d-,20'
p392
F0.09375
s.